target datalayout = "e-m:e-p270:32:32-p271:32:32-p272:64:64-i64:64-i128:128-f80:128-n8:16:32:64-S128"
target triple = "x86_64-pc-linux-gnu"

%struct.dt_imageio_jpeg_t = type { i32, i32, %struct.jpeg_source_mgr, %struct.jpeg_destination_mgr, %struct.jpeg_decompress_struct, %struct.jpeg_compress_struct, ptr }
%struct.jpeg_source_mgr = type { ptr, i64, ptr, ptr, ptr, ptr, ptr }
%struct.jpeg_destination_mgr = type { ptr, i64, ptr, ptr, ptr }
%struct.jpeg_decompress_struct = type { ptr, ptr, ptr, ptr, i32, i32, ptr, i32, i32, i32, i32, i32, i32, i32, double, i32, i32, i32, i32, i32, i32, i32, i32, i32, i32, i32, i32, i32, i32, i32, i32, i32, i32, ptr, i32, i32, i32, i32, i32, ptr, [4 x ptr], [4 x ptr], [4 x ptr], i32, ptr, i32, i32, i32, [16 x i8], [16 x i8], [16 x i8], i32, i32, i8, i8, i8, i16, i16, i32, i8, i32, ptr, i32, i32, i32, i32, i32, ptr, i32, [4 x ptr], i32, i32, i32, [10 x i32], i32, i32, i32, i32, i32, ptr, i32, i32, ptr, ptr, ptr, ptr, ptr, ptr, ptr, ptr, ptr, ptr, ptr }
%struct.jpeg_compress_struct = type { ptr, ptr, ptr, ptr, i32, i32, ptr, i32, i32, i32, i32, double, i32, i32, i32, i32, i32, i32, i32, ptr, [4 x ptr], [4 x i32], [4 x ptr], [4 x ptr], [16 x i8], [16 x i8], [16 x i8], i32, ptr, i32, i32, i32, i32, i32, i32, i32, i32, i32, i32, i8, i8, i8, i16, i16, i32, i32, i32, i32, i32, i32, i32, i32, i32, [4 x ptr], i32, i32, i32, [10 x i32], i32, i32, i32, i32, i32, ptr, i32, ptr, ptr, ptr, ptr, ptr, ptr, ptr, ptr, ptr, ptr, i32 }
%struct.jpeg_marker_struct = type { ptr, i8, i32, i32, ptr }

; Function Attrs: nounwind uwtable
define i32 @dt_imageio_jpeg_read_color_space(ptr noundef %0) #0 {
  %2 = alloca i32, align 4
  %3 = alloca ptr, align 8
  %4 = alloca ptr, align 8
  %5 = alloca i32, align 4
  store ptr %0, ptr %3, align 8, !tbaa !12
  call void @llvm.lifetime.start.p0(i64 8, ptr %4) #9
  %6 = load ptr, ptr %3, align 8, !tbaa !12
  %7 = getelementptr inbounds nuw %struct.dt_imageio_jpeg_t, ptr %6, i32 0, i32 4
  %8 = getelementptr inbounds nuw %struct.jpeg_decompress_struct, ptr %7, i32 0, i32 61
  %9 = load ptr, ptr %8, align 8, !tbaa !152
  store ptr %9, ptr %4, align 8, !tbaa !147
  br label %10

10:                                               ; preds = %37, %1
  %11 = load ptr, ptr %4, align 8, !tbaa !147
  %12 = icmp ne ptr %11, null
  br i1 %12, label %14, label %13

13:                                               ; preds = %10
  store i32 2, ptr %5, align 4
  br label %41

14:                                               ; preds = %10
  %15 = load ptr, ptr %4, align 8, !tbaa !147
  %16 = getelementptr inbounds nuw %struct.jpeg_marker_struct, ptr %15, i32 0, i32 1
  %17 = load i8, ptr %16, align 8, !tbaa !153
  %18 = zext i8 %17 to i32
  %19 = icmp eq i32 %18, 225
  br i1 %19, label %20, label %36

20:                                               ; preds = %14
  %21 = load ptr, ptr %4, align 8, !tbaa !147
  %22 = getelementptr inbounds nuw %struct.jpeg_marker_struct, ptr %21, i32 0, i32 3
  %23 = load i32, ptr %22, align 8, !tbaa !150
  %24 = icmp ugt i32 %23, 6
  br i1 %24, label %25, label %36

25:                                               ; preds = %20
  %26 = load ptr, ptr %4, align 8, !tbaa !147
  %27 = getelementptr inbounds nuw %struct.jpeg_marker_struct, ptr %26, i32 0, i32 4
  %28 = load ptr, ptr %27, align 8, !tbaa !148
  %29 = getelementptr inbounds i8, ptr %28, i64 6
  %30 = load ptr, ptr %4, align 8, !tbaa !147
  %31 = getelementptr inbounds nuw %struct.jpeg_marker_struct, ptr %30, i32 0, i32 3
  %32 = load i32, ptr %31, align 8, !tbaa !150
  %33 = sub i32 %32, 6
  %34 = zext i32 %33 to i64
  %35 = call i32 @dt_exif_get_color_space(ptr noundef %29, i64 noundef %34)
  store i32 %35, ptr %2, align 4
  store i32 1, ptr %5, align 4
  br label %41

36:                                               ; preds = %20, %14
  br label %37

37:                                               ; preds = %36
  %38 = load ptr, ptr %4, align 8, !tbaa !147
  %39 = getelementptr inbounds nuw %struct.jpeg_marker_struct, ptr %38, i32 0, i32 0
  %40 = load ptr, ptr %39, align 8, !tbaa !151
  store ptr %40, ptr %4, align 8, !tbaa !147
  br label %10

41:                                               ; preds = %25, %13
  call void @llvm.lifetime.end.p0(i64 8, ptr %4) #9
  %42 = load i32, ptr %5, align 4
  switch i32 %42, label %46 [
    i32 2, label %43
    i32 1, label %44
  ]

43:                                               ; preds = %41
  store i32 8, ptr %2, align 4
  br label %44

44:                                               ; preds = %43, %41
  %45 = load i32, ptr %2, align 4
  ret i32 %45

46:                                               ; preds = %41
  unreachable
}