; Function Attrs: nounwind uwtable
define i32 @dt_imageio_jpeg_read_color_space(ptr noundef readonly captures(none) %0) local_unnamed_addr #0 {
  %2 = getelementptr inbounds nuw i8, ptr %0, i64 504
  %.0812 = load ptr, ptr %2, align 8, !tbaa !96
  %.not13 = icmp eq ptr %.0812, null
  br i1 %.not13, label %.loopexit, label %.lr.ph

.lr.ph:                                           ; preds = %1, %17
  %.0814 = phi ptr [ %.08, %17 ], [ %.0812, %1 ]
  %3 = getelementptr inbounds nuw i8, ptr %.0814, i64 8
  %4 = load i8, ptr %3, align 8, !tbaa !97
  %5 = icmp eq i8 %4, -31
  br i1 %5, label %6, label %17

6:                                                ; preds = %.lr.ph
  %7 = getelementptr inbounds nuw i8, ptr %.0814, i64 16
  %8 = load i32, ptr %7, align 8, !tbaa !99
  %9 = icmp ugt i32 %8, 6
  br i1 %9, label %10, label %17

10:                                               ; preds = %6
  %11 = getelementptr inbounds nuw i8, ptr %.0814, i64 24
  %12 = load ptr, ptr %11, align 8, !tbaa !100
  %13 = getelementptr inbounds nuw i8, ptr %12, i64 6
  %14 = add i32 %8, -6
  %15 = zext i32 %14 to i64
  %16 = tail call i32 @dt_exif_get_color_space(ptr noundef nonnull %13, i64 noundef %15) #14
  br label %.loopexit

17:                                               ; preds = %.lr.ph, %6
  %.08 = load ptr, ptr %.0814, align 8, !tbaa !96
  %.not = icmp eq ptr %.08, null
  br i1 %.not, label %.loopexit, label %.lr.ph

.loopexit:                                        ; preds = %17, %1, %10
  %spec.select = phi i32 [ %16, %10 ], [ 8, %1 ], [ 8, %17 ]
  ret i32 %spec.select
}